; Function Attrs: mustprogress uwtable
define hidden void @_ZN6google8protobuf8compiler3cpp13Int32ToStringB5cxx11Ei(ptr noalias sret(%"class.std::__cxx11::basic_string") align 8 %agg.result, i32 noundef %number) local_unnamed_addr #4 personality ptr @__gxx_personality_v0 {
entry:
  %ref.tmp.i = alloca %"class.std::allocator", align 1
  %ref.tmp = alloca %"class.absl::lts_20230802::AlphaNum", align 8
  %ref.tmp1 = alloca %"class.absl::lts_20230802::AlphaNum", align 8
  %ref.tmp2 = alloca %"class.absl::lts_20230802::AlphaNum", align 8
  %cmp = icmp eq i32 %number, -2147483648
  br i1 %cmp, label %if.then, label %if.else

if.then:                                          ; preds = %entry
  %digits_.i = getelementptr inbounds i8, ptr %ref.tmp, i64 16
  %call.i = call noundef ptr @_ZN4absl12lts_2023080216numbers_internal15FastIntToBufferEiPc(i32 noundef -2147483647, ptr noundef nonnull %digits_.i)
  %sub.ptr.lhs.cast.i = ptrtoint ptr %call.i to i64
  %sub.ptr.rhs.cast.i = ptrtoint ptr %digits_.i to i64
  %sub.ptr.sub.i = sub i64 %sub.ptr.lhs.cast.i, %sub.ptr.rhs.cast.i
  store i64 %sub.ptr.sub.i, ptr %ref.tmp, align 8
  %_M_str.i.i = getelementptr inbounds i8, ptr %ref.tmp, i64 8
  store ptr %digits_.i, ptr %_M_str.i.i, align 8
  store i64 4, ptr %ref.tmp1, align 8
  %0 = getelementptr inbounds i8, ptr %ref.tmp1, i64 8
  store ptr @.str.81, ptr %0, align 8
  call void @_ZN4absl12lts_202308026StrCatB5cxx11ERKNS0_8AlphaNumES3_(ptr sret(%"class.std::__cxx11::basic_string") align 8 %agg.result, ptr noundef nonnull align 8 dereferenceable(48) %ref.tmp, ptr noundef nonnull align 8 dereferenceable(48) %ref.tmp1)
  br label %return

if.else:                                          ; preds = %entry
  %digits_.i3 = getelementptr inbounds i8, ptr %ref.tmp2, i64 16
  %call.i4 = call noundef ptr @_ZN4absl12lts_2023080216numbers_internal15FastIntToBufferEiPc(i32 noundef %number, ptr noundef nonnull %digits_.i3)
  %sub.ptr.lhs.cast.i5 = ptrtoint ptr %call.i4 to i64
  %sub.ptr.rhs.cast.i6 = ptrtoint ptr %digits_.i3 to i64
  %sub.ptr.sub.i7 = sub i64 %sub.ptr.lhs.cast.i5, %sub.ptr.rhs.cast.i6
  store i64 %sub.ptr.sub.i7, ptr %ref.tmp2, align 8
  %_M_str.i.i8 = getelementptr inbounds i8, ptr %ref.tmp2, i64 8
  store ptr %digits_.i3, ptr %_M_str.i.i8, align 8
  call void @llvm.lifetime.start.p0(i64 1, ptr nonnull %ref.tmp.i)
  call void @_ZNSaIcEC1Ev(ptr noundef nonnull align 1 dereferenceable(1) %ref.tmp.i) #26, !noalias !133
  invoke void @_ZNSt7__cxx1112basic_stringIcSt11char_traitsIcESaIcEEC1EPKcmRKS3_(ptr noundef nonnull align 8 dereferenceable(32) %agg.result, ptr noundef nonnull %digits_.i3, i64 noundef %sub.ptr.sub.i7, ptr noundef nonnull align 1 dereferenceable(1) %ref.tmp.i)
          to label %_ZN4absl12lts_202308026StrCatB5cxx11ERKNS0_8AlphaNumE.exit unwind label %lpad.i

lpad.i:                                           ; preds = %if.else
  %1 = landingpad { ptr, i32 }
          cleanup
  call void @_ZNSaIcED1Ev(ptr noundef nonnull align 1 dereferenceable(1) %ref.tmp.i) #26
  resume { ptr, i32 } %1

_ZN4absl12lts_202308026StrCatB5cxx11ERKNS0_8AlphaNumE.exit: ; preds = %if.else
  call void @_ZNSaIcED1Ev(ptr noundef nonnull align 1 dereferenceable(1) %ref.tmp.i) #26
  call void @llvm.lifetime.end.p0(i64 1, ptr nonnull %ref.tmp.i)
  br label %return

return:                                           ; preds = %_ZN4absl12lts_202308026StrCatB5cxx11ERKNS0_8AlphaNumE.exit, %if.then
  ret void
}